target datalayout = "e-m:e-p270:32:32-p271:32:32-p272:64:64-i64:64-i128:128-f80:128-n8:16:32:64-S128"
target triple = "x86_64-pc-linux-gnu"

%struct.AVFilterContext = type { ptr, ptr, ptr, ptr, ptr, i32, ptr, ptr, i32, ptr, ptr, i32, i32, ptr, ptr, ptr, ptr, i32, ptr, i32, i32 }
%struct.XFadeContext = type { ptr, i32, i64, i64, ptr, i32, i32, i32, i64, i64, i64, i64, i32, [2 x i32], [2 x ptr], i32, [4 x i16], [4 x i16], ptr, ptr }
%struct.AVRational = type { i32, i32 }
%struct.AVFrame = type { [8 x ptr], [8 x i32], ptr, i32, i32, i32, i32, i32, %struct.AVRational, i64, i64, %struct.AVRational, i32, ptr, i32, i32, [8 x ptr], ptr, i32, ptr, i32, i32, i32, i32, i32, i32, i32, i64, ptr, i32, ptr, ptr, i64, i64, i64, i64, ptr, %struct.AVChannelLayout, i64 }
%struct.AVChannelLayout = type { i32, i32, %union.anon.1, ptr }
%union.anon.1 = type { i64 }

; Function Attrs: alwaysinline nounwind willreturn memory(none) uwtable
define internal float @av_clipf_c(float noundef %0, float noundef %1, float noundef %2) #8 {
  %4 = alloca float, align 4
  %5 = alloca float, align 4
  %6 = alloca float, align 4
  store float %0, ptr %4, align 4, !tbaa !90
  store float %1, ptr %5, align 4, !tbaa !90
  store float %2, ptr %6, align 4, !tbaa !90
  %7 = load float, ptr %4, align 4, !tbaa !90
  %8 = load float, ptr %5, align 4, !tbaa !90
  %9 = fcmp nsz ogt float %7, %8
  br i1 %9, label %10, label %12

10:                                               ; preds = %3
  %11 = load float, ptr %4, align 4, !tbaa !90
  br label %14

12:                                               ; preds = %3
  %13 = load float, ptr %5, align 4, !tbaa !90
  br label %14

14:                                               ; preds = %12, %10
  %15 = phi nsz float [ %11, %10 ], [ %13, %12 ]
  %16 = load float, ptr %6, align 4, !tbaa !90
  %17 = fcmp nsz ogt float %15, %16
  br i1 %17, label %18, label %20

18:                                               ; preds = %14
  %19 = load float, ptr %6, align 4, !tbaa !90
  br label %30

20:                                               ; preds = %14
  %21 = load float, ptr %4, align 4, !tbaa !90
  %22 = load float, ptr %5, align 4, !tbaa !90
  %23 = fcmp nsz ogt float %21, %22
  br i1 %23, label %24, label %26

24:                                               ; preds = %20
  %25 = load float, ptr %4, align 4, !tbaa !90
  br label %28

26:                                               ; preds = %20
  %27 = load float, ptr %5, align 4, !tbaa !90
  br label %28

28:                                               ; preds = %26, %24
  %29 = phi nsz float [ %25, %24 ], [ %27, %26 ]
  br label %30

30:                                               ; preds = %28, %18
  %31 = phi nsz float [ %19, %18 ], [ %29, %28 ]
  ret float %31
}

; Function Attrs: inlinehint nounwind uwtable
define internal float @mix(float noundef %0, float noundef %1, float noundef %2) #4 {
  %4 = alloca float, align 4
  %5 = alloca float, align 4
  %6 = alloca float, align 4
  store float %0, ptr %4, align 4, !tbaa !90
  store float %1, ptr %5, align 4, !tbaa !90
  store float %2, ptr %6, align 4, !tbaa !90
  %7 = load float, ptr %4, align 4, !tbaa !90
  %8 = load float, ptr %6, align 4, !tbaa !90
  %9 = load float, ptr %5, align 4, !tbaa !90
  %10 = load float, ptr %6, align 4, !tbaa !90
  %11 = fsub nsz float 1.000000e+00, %10
  %12 = fmul nsz float %9, %11
  %13 = call nsz float @llvm.fmuladd.f32(float %7, float %8, float %12)
  ret float %13
}

; Function Attrs: inlinehint nounwind uwtable
define internal float @fract(float noundef %0) #4 {
  %2 = alloca float, align 4
  store float %0, ptr %2, align 4, !tbaa !90
  %3 = load float, ptr %2, align 4, !tbaa !90
  %4 = load float, ptr %2, align 4, !tbaa !90
  %5 = call nsz float @llvm.floor.f32(float %4)
  %6 = fsub nsz float %3, %5
  ret float %6
}

; Function Attrs: inlinehint nounwind uwtable
define internal float @smoothstep(float noundef %0, float noundef %1, float noundef %2) #4 {
  %4 = alloca float, align 4
  %5 = alloca float, align 4
  %6 = alloca float, align 4
  %7 = alloca float, align 4
  store float %0, ptr %4, align 4, !tbaa !90
  store float %1, ptr %5, align 4, !tbaa !90
  store float %2, ptr %6, align 4, !tbaa !90
  call void @llvm.lifetime.start.p0(i64 4, ptr %7) #10
  %8 = load float, ptr %6, align 4, !tbaa !90
  %9 = load float, ptr %4, align 4, !tbaa !90
  %10 = fsub nsz float %8, %9
  %11 = load float, ptr %5, align 4, !tbaa !90
  %12 = load float, ptr %4, align 4, !tbaa !90
  %13 = fsub nsz float %11, %12
  %14 = fdiv nsz float %10, %13
  %15 = call nsz float @av_clipf_c(float noundef %14, float noundef 0.000000e+00, float noundef 1.000000e+00) #11
  store float %15, ptr %7, align 4, !tbaa !90
  %16 = load float, ptr %7, align 4, !tbaa !90
  %17 = load float, ptr %7, align 4, !tbaa !90
  %18 = fmul nsz float %16, %17
  %19 = load float, ptr %7, align 4, !tbaa !90
  %20 = call nsz float @llvm.fmuladd.f32(float -2.000000e+00, float %19, float 3.000000e+00)
  %21 = fmul nsz float %18, %20
  call void @llvm.lifetime.end.p0(i64 4, ptr %7) #10
  ret float %21
}

; Function Attrs: nounwind uwtable
define internal void @vdslice8_transition(ptr noundef %0, ptr noundef %1, ptr noundef %2, ptr noundef %3, float noundef %4, i32 noundef %5, i32 noundef %6, i32 noundef %7) #1 {
  %9 = alloca ptr, align 8
  %10 = alloca ptr, align 8
  %11 = alloca ptr, align 8
  %12 = alloca ptr, align 8
  %13 = alloca float, align 4
  %14 = alloca i32, align 4
  %15 = alloca i32, align 4
  %16 = alloca i32, align 4
  %17 = alloca ptr, align 8
  %18 = alloca i32, align 4
  %19 = alloca i32, align 4
  %20 = alloca float, align 4
  %21 = alloca i32, align 4
  %22 = alloca i32, align 4
  %23 = alloca float, align 4
  %24 = alloca float, align 4
  %25 = alloca float, align 4
  %26 = alloca i32, align 4
  %27 = alloca i32, align 4
  %28 = alloca ptr, align 8
  %29 = alloca ptr, align 8
  %30 = alloca ptr, align 8
  store ptr %0, ptr %9, align 8, !tbaa !4
  store ptr %1, ptr %10, align 8, !tbaa !36
  store ptr %2, ptr %11, align 8, !tbaa !36
  store ptr %3, ptr %12, align 8, !tbaa !36
  store float %4, ptr %13, align 4, !tbaa !90
  store i32 %5, ptr %14, align 4, !tbaa !32
  store i32 %6, ptr %15, align 4, !tbaa !32
  store i32 %7, ptr %16, align 4, !tbaa !32
  call void @llvm.lifetime.start.p0(i64 8, ptr %17) #10
  %31 = load ptr, ptr %9, align 8, !tbaa !4
  %32 = getelementptr inbounds nuw %struct.AVFilterContext, ptr %31, i32 0, i32 9
  %33 = load ptr, ptr %32, align 8, !tbaa !9
  store ptr %33, ptr %17, align 8, !tbaa !22
  call void @llvm.lifetime.start.p0(i64 4, ptr %18) #10
  %34 = load ptr, ptr %17, align 8, !tbaa !22
  %35 = getelementptr inbounds nuw %struct.XFadeContext, ptr %34, i32 0, i32 5
  %36 = load i32, ptr %35, align 8, !tbaa !82
  store i32 %36, ptr %18, align 4, !tbaa !32
  call void @llvm.lifetime.start.p0(i64 4, ptr %19) #10
  %37 = load ptr, ptr %12, align 8, !tbaa !36
  %38 = getelementptr inbounds nuw %struct.AVFrame, ptr %37, i32 0, i32 3
  %39 = load i32, ptr %38, align 8, !tbaa !92
  store i32 %39, ptr %19, align 4, !tbaa !32
  call void @llvm.lifetime.start.p0(i64 4, ptr %20) #10
  %40 = load ptr, ptr %12, align 8, !tbaa !36
  %41 = getelementptr inbounds nuw %struct.AVFrame, ptr %40, i32 0, i32 4
  %42 = load i32, ptr %41, align 4, !tbaa !95
  %43 = sitofp i32 %42 to float
  store float %43, ptr %20, align 4, !tbaa !90
  call void @llvm.lifetime.start.p0(i64 4, ptr %21) #10
  %44 = load i32, ptr %14, align 4, !tbaa !32
  store i32 %44, ptr %21, align 4, !tbaa !32
  br label %45

45:                                               ; preds = %156, %8
  %46 = load i32, ptr %21, align 4, !tbaa !32
  %47 = load i32, ptr %15, align 4, !tbaa !32
  %48 = icmp slt i32 %46, %47
  br i1 %48, label %50, label %49

49:                                               ; preds = %45
  store i32 2, ptr %22, align 4
  call void @llvm.lifetime.end.p0(i64 4, ptr %21) #10
  br label %159

50:                                               ; preds = %45
  call void @llvm.lifetime.start.p0(i64 4, ptr %23) #10
  %51 = load float, ptr %20, align 4, !tbaa !90
  %52 = fsub nsz float %51, 1.000000e+00
  %53 = load i32, ptr %21, align 4, !tbaa !32
  %54 = sitofp i32 %53 to float
  %55 = fsub nsz float %52, %54
  %56 = load float, ptr %20, align 4, !tbaa !90
  %57 = fdiv nsz float %55, %56
  store float %57, ptr %23, align 4, !tbaa !90
  call void @llvm.lifetime.start.p0(i64 4, ptr %24) #10
  %58 = load float, ptr %23, align 4, !tbaa !90
  %59 = load float, ptr %13, align 4, !tbaa !90
  %60 = fneg nsz float %59
  %61 = call nsz float @llvm.fmuladd.f32(float %60, float 1.500000e+00, float %58)
  %62 = call nsz float @smoothstep(float noundef -5.000000e-01, float noundef 0.000000e+00, float noundef %61)
  store float %62, ptr %24, align 4, !tbaa !90
  call void @llvm.lifetime.start.p0(i64 4, ptr %25) #10
  %63 = load float, ptr %24, align 4, !tbaa !90
  %64 = load float, ptr %23, align 4, !tbaa !90
  %65 = fmul nsz float 1.000000e+01, %64
  %66 = call nsz float @fract(float noundef %65)
  %67 = fcmp nsz ole float %63, %66
  %68 = select nsz i1 %67, float 0.000000e+00, float 1.000000e+00
  store float %68, ptr %25, align 4, !tbaa !90
  call void @llvm.lifetime.start.p0(i64 4, ptr %26) #10
  store i32 0, ptr %26, align 4, !tbaa !32
  br label %69

69:                                               ; preds = %152, %50
  %70 = load i32, ptr %26, align 4, !tbaa !32
  %71 = load i32, ptr %19, align 4, !tbaa !32
  %72 = icmp slt i32 %70, %71
  br i1 %72, label %74, label %73

73:                                               ; preds = %69
  store i32 5, ptr %22, align 4
  call void @llvm.lifetime.end.p0(i64 4, ptr %26) #10
  br label %155

74:                                               ; preds = %69
  call void @llvm.lifetime.start.p0(i64 4, ptr %27) #10
  store i32 0, ptr %27, align 4, !tbaa !32
  br label %75

75:                                               ; preds = %148, %74
  %76 = load i32, ptr %27, align 4, !tbaa !32
  %77 = load i32, ptr %18, align 4, !tbaa !32
  %78 = icmp slt i32 %76, %77
  br i1 %78, label %80, label %79

79:                                               ; preds = %75
  store i32 8, ptr %22, align 4
  call void @llvm.lifetime.end.p0(i64 4, ptr %27) #10
  br label %151

80:                                               ; preds = %75
  call void @llvm.lifetime.start.p0(i64 8, ptr %28) #10
  %81 = load ptr, ptr %10, align 8, !tbaa !36
  %82 = getelementptr inbounds nuw %struct.AVFrame, ptr %81, i32 0, i32 0
  %83 = load i32, ptr %27, align 4, !tbaa !32
  %84 = sext i32 %83 to i64
  %85 = getelementptr inbounds [8 x ptr], ptr %82, i64 0, i64 %84
  %86 = load ptr, ptr %85, align 8, !tbaa !96
  %87 = load i32, ptr %21, align 4, !tbaa !32
  %88 = load ptr, ptr %10, align 8, !tbaa !36
  %89 = getelementptr inbounds nuw %struct.AVFrame, ptr %88, i32 0, i32 1
  %90 = load i32, ptr %27, align 4, !tbaa !32
  %91 = sext i32 %90 to i64
  %92 = getelementptr inbounds [8 x i32], ptr %89, i64 0, i64 %91
  %93 = load i32, ptr %92, align 4, !tbaa !32
  %94 = mul nsw i32 %87, %93
  %95 = sext i32 %94 to i64
  %96 = getelementptr inbounds i8, ptr %86, i64 %95
  store ptr %96, ptr %28, align 8, !tbaa !96
  call void @llvm.lifetime.start.p0(i64 8, ptr %29) #10
  %97 = load ptr, ptr %11, align 8, !tbaa !36
  %98 = getelementptr inbounds nuw %struct.AVFrame, ptr %97, i32 0, i32 0
  %99 = load i32, ptr %27, align 4, !tbaa !32
  %100 = sext i32 %99 to i64
  %101 = getelementptr inbounds [8 x ptr], ptr %98, i64 0, i64 %100
  %102 = load ptr, ptr %101, align 8, !tbaa !96
  %103 = load i32, ptr %21, align 4, !tbaa !32
  %104 = load ptr, ptr %11, align 8, !tbaa !36
  %105 = getelementptr inbounds nuw %struct.AVFrame, ptr %104, i32 0, i32 1
  %106 = load i32, ptr %27, align 4, !tbaa !32
  %107 = sext i32 %106 to i64
  %108 = getelementptr inbounds [8 x i32], ptr %105, i64 0, i64 %107
  %109 = load i32, ptr %108, align 4, !tbaa !32
  %110 = mul nsw i32 %103, %109
  %111 = sext i32 %110 to i64
  %112 = getelementptr inbounds i8, ptr %102, i64 %111
  store ptr %112, ptr %29, align 8, !tbaa !96
  call void @llvm.lifetime.start.p0(i64 8, ptr %30) #10
  %113 = load ptr, ptr %12, align 8, !tbaa !36
  %114 = getelementptr inbounds nuw %struct.AVFrame, ptr %113, i32 0, i32 0
  %115 = load i32, ptr %27, align 4, !tbaa !32
  %116 = sext i32 %115 to i64
  %117 = getelementptr inbounds [8 x ptr], ptr %114, i64 0, i64 %116
  %118 = load ptr, ptr %117, align 8, !tbaa !96
  %119 = load i32, ptr %21, align 4, !tbaa !32
  %120 = load ptr, ptr %12, align 8, !tbaa !36
  %121 = getelementptr inbounds nuw %struct.AVFrame, ptr %120, i32 0, i32 1
  %122 = load i32, ptr %27, align 4, !tbaa !32
  %123 = sext i32 %122 to i64
  %124 = getelementptr inbounds [8 x i32], ptr %121, i64 0, i64 %123
  %125 = load i32, ptr %124, align 4, !tbaa !32
  %126 = mul nsw i32 %119, %125
  %127 = sext i32 %126 to i64
  %128 = getelementptr inbounds i8, ptr %118, i64 %127
  store ptr %128, ptr %30, align 8, !tbaa !96
  %129 = load ptr, ptr %29, align 8, !tbaa !96
  %130 = load i32, ptr %26, align 4, !tbaa !32
  %131 = sext i32 %130 to i64
  %132 = getelementptr inbounds i8, ptr %129, i64 %131
  %133 = load i8, ptr %132, align 1, !tbaa !97
  %134 = uitofp i8 %133 to float
  %135 = load ptr, ptr %28, align 8, !tbaa !96
  %136 = load i32, ptr %26, align 4, !tbaa !32
  %137 = sext i32 %136 to i64
  %138 = getelementptr inbounds i8, ptr %135, i64 %137
  %139 = load i8, ptr %138, align 1, !tbaa !97
  %140 = uitofp i8 %139 to float
  %141 = load float, ptr %25, align 4, !tbaa !90
  %142 = call nsz float @mix(float noundef %134, float noundef %140, float noundef %141)
  %143 = fptoui float %142 to i8
  %144 = load ptr, ptr %30, align 8, !tbaa !96
  %145 = load i32, ptr %26, align 4, !tbaa !32
  %146 = sext i32 %145 to i64
  %147 = getelementptr inbounds i8, ptr %144, i64 %146
  store i8 %143, ptr %147, align 1, !tbaa !97
  call void @llvm.lifetime.end.p0(i64 8, ptr %30) #10
  call void @llvm.lifetime.end.p0(i64 8, ptr %29) #10
  call void @llvm.lifetime.end.p0(i64 8, ptr %28) #10
  br label %148

148:                                              ; preds = %80
  %149 = load i32, ptr %27, align 4, !tbaa !32
  %150 = add nsw i32 %149, 1
  store i32 %150, ptr %27, align 4, !tbaa !32
  br label %75, !llvm.loop !312

151:                                              ; preds = %79
  br label %152

152:                                              ; preds = %151
  %153 = load i32, ptr %26, align 4, !tbaa !32
  %154 = add nsw i32 %153, 1
  store i32 %154, ptr %26, align 4, !tbaa !32
  br label %69, !llvm.loop !313

155:                                              ; preds = %73
  call void @llvm.lifetime.end.p0(i64 4, ptr %25) #10
  call void @llvm.lifetime.end.p0(i64 4, ptr %24) #10
  call void @llvm.lifetime.end.p0(i64 4, ptr %23) #10
  br label %156

156:                                              ; preds = %155
  %157 = load i32, ptr %21, align 4, !tbaa !32
  %158 = add nsw i32 %157, 1
  store i32 %158, ptr %21, align 4, !tbaa !32
  br label %45, !llvm.loop !314

159:                                              ; preds = %49
  call void @llvm.lifetime.end.p0(i64 4, ptr %20) #10
  call void @llvm.lifetime.end.p0(i64 4, ptr %19) #10
  call void @llvm.lifetime.end.p0(i64 4, ptr %18) #10
  call void @llvm.lifetime.end.p0(i64 8, ptr %17) #10
  ret void
}