; Function Attrs: nofree norecurse nosync nounwind memory(readwrite, inaccessiblemem: none) uwtable
define internal void @vdslice8_transition(ptr noundef readonly captures(none) %0, ptr noundef readonly captures(none) %1, ptr noundef readonly captures(none) %2, ptr noundef readonly captures(none) %3, float noundef %4, i32 noundef %5, i32 noundef %6, i32 %7) #6 {
  %9 = getelementptr inbounds nuw i8, ptr %0, i64 72
  %10 = load ptr, ptr %9, align 8, !tbaa !4
  %11 = getelementptr inbounds nuw i8, ptr %10, i64 40
  %12 = load i32, ptr %11, align 8, !tbaa !77
  %13 = getelementptr inbounds nuw i8, ptr %3, i64 104
  %14 = load i32, ptr %13, align 8, !tbaa !85
  %15 = getelementptr inbounds nuw i8, ptr %3, i64 108
  %16 = load i32, ptr %15, align 4, !tbaa !88
  %17 = sitofp i32 %16 to float
  %18 = icmp slt i32 %5, %6
  br i1 %18, label %.lr.ph, label %._crit_edge

.lr.ph:                                           ; preds = %8
  %19 = fadd nsz float %17, -1.000000e+00
  %20 = fneg nsz float %4
  %21 = icmp sgt i32 %14, 0
  %22 = getelementptr inbounds nuw i8, ptr %1, i64 64
  %23 = getelementptr inbounds nuw i8, ptr %2, i64 64
  %24 = getelementptr inbounds nuw i8, ptr %3, i64 64
  %25 = icmp sgt i32 %12, 0
  %or.cond = select i1 %21, i1 %25, i1 false
  br i1 %or.cond, label %.preheader.lr.ph.us.us.preheader, label %._crit_edge

.preheader.lr.ph.us.us.preheader:                 ; preds = %.lr.ph
  %wide.trip.count59 = zext nneg i32 %14 to i64
  %wide.trip.count = zext nneg i32 %12 to i64
  br label %.preheader.lr.ph.us.us

.preheader.lr.ph.us.us:                           ; preds = %.preheader.lr.ph.us.us.preheader, %._crit_edge46.split.us.us.us
  %.047.us.us = phi i32 [ %76, %._crit_edge46.split.us.us.us ], [ %5, %.preheader.lr.ph.us.us.preheader ]
  %26 = sitofp i32 %.047.us.us to float
  %27 = fsub nsz float %19, %26
  %28 = fdiv nsz float %27, %17
  %29 = tail call nsz float @llvm.fmuladd.f32(float %20, float 1.500000e+00, float %28)
  %30 = fadd nsz float %29, 5.000000e-01
  %31 = fmul nsz float %30, 2.000000e+00
  %32 = fcmp nsz ogt float %31, 0.000000e+00
  %33 = select nsz i1 %32, float %31, float 0.000000e+00
  %34 = fcmp nsz ogt float %33, 1.000000e+00
  %..i.i.us.us = select nsz i1 %34, float 1.000000e+00, float %33
  %35 = fmul nsz float %..i.i.us.us, %..i.i.us.us
  %36 = tail call nsz float @llvm.fmuladd.f32(float %..i.i.us.us, float -2.000000e+00, float 3.000000e+00)
  %37 = fmul nsz float %35, %36
  %38 = fmul nsz float %28, 1.000000e+01
  %39 = tail call nsz float @llvm.floor.f32(float %38)
  %40 = fsub nsz float %38, %39
  %41 = fcmp nsz ole float %37, %40
  %42 = select nsz i1 %41, float 0.000000e+00, float 1.000000e+00
  %43 = fsub nsz float 1.000000e+00, %42
  br label %.preheader.us.us.us

.preheader.us.us.us:                              ; preds = %._crit_edge.us.us.us, %.preheader.lr.ph.us.us
  %indvars.iv56 = phi i64 [ %indvars.iv.next57, %._crit_edge.us.us.us ], [ 0, %.preheader.lr.ph.us.us ]
  br label %44

44:                                               ; preds = %44, %.preheader.us.us.us
  %indvars.iv = phi i64 [ %indvars.iv.next, %44 ], [ 0, %.preheader.us.us.us ]
  %45 = getelementptr inbounds nuw [8 x ptr], ptr %1, i64 0, i64 %indvars.iv
  %46 = load ptr, ptr %45, align 8, !tbaa !89
  %47 = getelementptr inbounds nuw [8 x i32], ptr %22, i64 0, i64 %indvars.iv
  %48 = load i32, ptr %47, align 4, !tbaa !31
  %49 = mul nsw i32 %48, %.047.us.us
  %50 = sext i32 %49 to i64
  %51 = getelementptr inbounds i8, ptr %46, i64 %50
  %52 = getelementptr inbounds nuw [8 x ptr], ptr %2, i64 0, i64 %indvars.iv
  %53 = load ptr, ptr %52, align 8, !tbaa !89
  %54 = getelementptr inbounds nuw [8 x i32], ptr %23, i64 0, i64 %indvars.iv
  %55 = load i32, ptr %54, align 4, !tbaa !31
  %56 = mul nsw i32 %55, %.047.us.us
  %57 = sext i32 %56 to i64
  %58 = getelementptr inbounds i8, ptr %53, i64 %57
  %59 = getelementptr inbounds nuw [8 x ptr], ptr %3, i64 0, i64 %indvars.iv
  %60 = load ptr, ptr %59, align 8, !tbaa !89
  %61 = getelementptr inbounds nuw [8 x i32], ptr %24, i64 0, i64 %indvars.iv
  %62 = load i32, ptr %61, align 4, !tbaa !31
  %63 = mul nsw i32 %62, %.047.us.us
  %64 = sext i32 %63 to i64
  %65 = getelementptr inbounds i8, ptr %60, i64 %64
  %66 = getelementptr inbounds nuw i8, ptr %58, i64 %indvars.iv56
  %67 = load i8, ptr %66, align 1, !tbaa !90
  %68 = uitofp i8 %67 to float
  %69 = getelementptr inbounds nuw i8, ptr %51, i64 %indvars.iv56
  %70 = load i8, ptr %69, align 1, !tbaa !90
  %71 = uitofp i8 %70 to float
  %72 = fmul nsz float %43, %71
  %73 = tail call nsz noundef float @llvm.fmuladd.f32(float %68, float %42, float %72)
  %74 = fptoui float %73 to i8
  %75 = getelementptr inbounds nuw i8, ptr %65, i64 %indvars.iv56
  store i8 %74, ptr %75, align 1, !tbaa !90
  %indvars.iv.next = add nuw nsw i64 %indvars.iv, 1
  %exitcond.not = icmp eq i64 %indvars.iv.next, %wide.trip.count
  br i1 %exitcond.not, label %._crit_edge.us.us.us, label %44, !llvm.loop !304

._crit_edge.us.us.us:                             ; preds = %44
  %indvars.iv.next57 = add nuw nsw i64 %indvars.iv56, 1
  %exitcond60.not = icmp eq i64 %indvars.iv.next57, %wide.trip.count59
  br i1 %exitcond60.not, label %._crit_edge46.split.us.us.us, label %.preheader.us.us.us, !llvm.loop !305

._crit_edge46.split.us.us.us:                     ; preds = %._crit_edge.us.us.us
  %76 = add nsw i32 %.047.us.us, 1
  %exitcond61.not = icmp eq i32 %76, %6
  br i1 %exitcond61.not, label %._crit_edge, label %.preheader.lr.ph.us.us, !llvm.loop !306

._crit_edge:                                      ; preds = %._crit_edge46.split.us.us.us, %.lr.ph, %8
  ret void
}